; Function Attrs: nounwind uwtable
define ptr @l_Lean_Elab_Tactic_classical___rarg___lambda__4___boxed(ptr noundef %0, ptr noundef %1, ptr noundef %2, ptr noundef %3, ptr noundef %4, ptr noundef %5, ptr noundef %6) #0 {
  %8 = load ptr, ptr @l_Lean_Elab_Tactic_classical___rarg___lambda__4___closed__4, align 8, !tbaa !10
  %9 = tail call ptr @lean_apply_2(ptr noundef %0, ptr noundef nonnull inttoptr (i64 1 to ptr), ptr noundef %8) #4
  tail call void @lean_inc_heartbeat() #4
  %10 = tail call noalias ptr @mi_malloc_small(i64 noundef 56) #4
  %11 = icmp eq ptr %10, null
  br i1 %11, label %12, label %l_Lean_Elab_Tactic_classical___rarg___lambda__4.exit

12:                                               ; preds = %7
  tail call void @lean_internal_panic_out_of_memory() #5
  unreachable

l_Lean_Elab_Tactic_classical___rarg___lambda__4.exit: ; preds = %7
  %13 = getelementptr inbounds nuw i8, ptr %10, i64 4
  store i32 1, ptr %10, align 4, !tbaa !4
  store i32 -184549320, ptr %13, align 4
  %14 = getelementptr inbounds nuw i8, ptr %10, i64 8
  store ptr @l_Lean_Elab_Tactic_classical___rarg___lambda__3___boxed, ptr %14, align 8, !tbaa !10
  %15 = getelementptr inbounds nuw i8, ptr %10, i64 16
  store i16 5, ptr %15, align 8, !tbaa !12
  %16 = getelementptr inbounds nuw i8, ptr %10, i64 18
  store i16 4, ptr %16, align 2, !tbaa !12
  %17 = getelementptr inbounds nuw i8, ptr %10, i64 24
  store ptr %1, ptr %17, align 8, !tbaa !10
  %18 = getelementptr inbounds nuw i8, ptr %10, i64 32
  store ptr %2, ptr %18, align 8, !tbaa !10
  %19 = getelementptr inbounds nuw i8, ptr %10, i64 40
  store ptr %3, ptr %19, align 8, !tbaa !10
  %20 = getelementptr inbounds nuw i8, ptr %10, i64 48
  store ptr %4, ptr %20, align 8, !tbaa !10
  %21 = tail call ptr @lean_apply_4(ptr noundef %5, ptr noundef nonnull inttoptr (i64 1 to ptr), ptr noundef nonnull inttoptr (i64 1 to ptr), ptr noundef %9, ptr noundef nonnull %10) #4
  %22 = ptrtoint ptr %6 to i64
  %23 = and i64 %22, 1
  %.not = icmp eq i64 %23, 0
  br i1 %.not, label %24, label %lean_dec.exit

24:                                               ; preds = %l_Lean_Elab_Tactic_classical___rarg___lambda__4.exit
  %25 = load i32, ptr %6, align 4, !tbaa !4
  %26 = icmp sgt i32 %25, 1
  br i1 %26, label %27, label %29, !prof !9

27:                                               ; preds = %24
  %28 = add nsw i32 %25, -1
  store i32 %28, ptr %6, align 4, !tbaa !4
  br label %lean_dec.exit

29:                                               ; preds = %24
  %.not.i = icmp eq i32 %25, 0
  br i1 %.not.i, label %lean_dec.exit, label %30

30:                                               ; preds = %29
  tail call void @lean_dec_ref_cold(ptr noundef nonnull %6) #4
  br label %lean_dec.exit

lean_dec.exit:                                    ; preds = %30, %29, %27, %l_Lean_Elab_Tactic_classical___rarg___lambda__4.exit
  ret ptr %21
}